; Function Attrs: mustprogress nofree norecurse nosync nounwind willreturn memory(argmem: write) uwtable
define dso_local void @_ZN5draco9PlyReaderC2Ev(ptr noundef nonnull align 8 dereferenceable(76) initializes((0, 24), (32, 36), (40, 48)) %0) unnamed_addr #4 align 2 personality ptr @__gxx_personality_v0 {
  tail call void @llvm.memset.p0.i64(ptr noundef nonnull align 8 dereferenceable(24) %0, i8 0, i64 24, i1 false)
  %2 = getelementptr inbounds nuw i8, ptr %0, i64 32
  store i32 0, ptr %2, align 8, !tbaa !52
  %3 = getelementptr inbounds nuw i8, ptr %0, i64 40
  store ptr null, ptr %3, align 8, !tbaa !53
  %4 = getelementptr inbounds nuw i8, ptr %0, i64 48
  store ptr %2, ptr %4, align 8, !tbaa !54
  %5 = getelementptr inbounds nuw i8, ptr %0, i64 56
  store ptr %2, ptr %5, align 8, !tbaa !55
  %6 = getelementptr inbounds nuw i8, ptr %0, i64 64
  store i64 0, ptr %6, align 8, !tbaa !56
  %7 = getelementptr inbounds nuw i8, ptr %0, i64 72
  store i32 0, ptr %7, align 8, !tbaa !57
  ret void
}